; Function Attrs: mustprogress nofree norecurse nosync nounwind willreturn memory(read, inaccessiblemem: none) uwtable
define dso_local { i64, ptr } @_ZNK4Luau19EqSatSimplification11StringCache12asStringViewEj(ptr noundef nonnull readonly align 8 captures(none) dereferenceable(88) %0, i32 noundef %1) local_unnamed_addr #6 align 2 {
  %3 = getelementptr inbounds nuw i8, ptr %0, i64 64
  %4 = zext i32 %1 to i64
  %5 = load ptr, ptr %3, align 8, !tbaa !42
  %6 = getelementptr inbounds nuw %"class.std::basic_string_view", ptr %5, i64 %4
  %.sroa.0.0.copyload = load i64, ptr %6, align 8, !tbaa !45
  %.sroa.2.0..sroa_idx = getelementptr inbounds nuw i8, ptr %6, i64 8
  %.sroa.2.0.copyload = load ptr, ptr %.sroa.2.0..sroa_idx, align 8, !tbaa !46
  %.fca.0.insert = insertvalue { i64, ptr } poison, i64 %.sroa.0.0.copyload, 0
  %.fca.1.insert = insertvalue { i64, ptr } %.fca.0.insert, ptr %.sroa.2.0.copyload, 1
  ret { i64, ptr } %.fca.1.insert
}